target datalayout = "e-m:e-p270:32:32-p271:32:32-p272:64:64-i64:64-i128:128-f80:128-n8:16:32:64-S128"
target triple = "x86_64-unknown-linux-gnu"

%"struct.ue2::(anonymous namespace)::raw_report_info_impl" = type { %"struct.ue2::raw_report_info", %"class.std::vector.102" }
%"struct.ue2::raw_report_info" = type { ptr }
%"class.std::vector.102" = type { %"struct.std::_Vector_base.103" }
%"struct.std::_Vector_base.103" = type { %"struct.std::_Vector_base<ue2::(anonymous namespace)::raw_report_list, std::allocator<ue2::(anonymous namespace)::raw_report_list>>::_Vector_impl" }
%"struct.std::_Vector_base<ue2::(anonymous namespace)::raw_report_list, std::allocator<ue2::(anonymous namespace)::raw_report_list>>::_Vector_impl" = type { %"struct.std::_Vector_base<ue2::(anonymous namespace)::raw_report_list, std::allocator<ue2::(anonymous namespace)::raw_report_list>>::_Vector_impl_data" }
%"struct.std::_Vector_base<ue2::(anonymous namespace)::raw_report_list, std::allocator<ue2::(anonymous namespace)::raw_report_list>>::_Vector_impl_data" = type { ptr, ptr, ptr }

; Function Attrs: mustprogress nounwind uwtable
define internal noundef i64 @_ZNKSt6vectorIN3ue212_GLOBAL__N_115raw_report_listESaIS2_EE4sizeEv(ptr noundef nonnull align 8 dereferenceable(24) %this) #2 align 2 {
entry:
  %this.addr = alloca ptr, align 8
  store ptr %this, ptr %this.addr, align 8
  %this1 = load ptr, ptr %this.addr, align 8
  %_M_impl = getelementptr inbounds %"struct.std::_Vector_base.103", ptr %this1, i32 0, i32 0
  %_M_finish = getelementptr inbounds %"struct.std::_Vector_base<ue2::(anonymous namespace)::raw_report_list, std::allocator<ue2::(anonymous namespace)::raw_report_list>>::_Vector_impl_data", ptr %_M_impl, i32 0, i32 1
  %0 = load ptr, ptr %_M_finish, align 8
  %_M_impl2 = getelementptr inbounds %"struct.std::_Vector_base.103", ptr %this1, i32 0, i32 0
  %_M_start = getelementptr inbounds %"struct.std::_Vector_base<ue2::(anonymous namespace)::raw_report_list, std::allocator<ue2::(anonymous namespace)::raw_report_list>>::_Vector_impl_data", ptr %_M_impl2, i32 0, i32 0
  %1 = load ptr, ptr %_M_start, align 8
  %sub.ptr.lhs.cast = ptrtoint ptr %0 to i64
  %sub.ptr.rhs.cast = ptrtoint ptr %1 to i64
  %sub.ptr.sub = sub i64 %sub.ptr.lhs.cast, %sub.ptr.rhs.cast
  %sub.ptr.div = sdiv exact i64 %sub.ptr.sub, 32
  ret i64 %sub.ptr.div
}

; Function Attrs: mustprogress nounwind uwtable
define internal noundef i64 @_ZNK3ue212_GLOBAL__N_120raw_report_info_impl4sizeEv(ptr noundef nonnull align 8 dereferenceable(32) %this) unnamed_addr #2 align 2 {
entry:
  %this.addr = alloca ptr, align 8
  store ptr %this, ptr %this.addr, align 8
  %this1 = load ptr, ptr %this.addr, align 8
  %rl = getelementptr inbounds %"struct.ue2::(anonymous namespace)::raw_report_info_impl", ptr %this1, i32 0, i32 1
  %call = call noundef i64 @_ZNKSt6vectorIN3ue212_GLOBAL__N_115raw_report_listESaIS2_EE4sizeEv(ptr noundef nonnull align 8 dereferenceable(24) %rl) #1
  ret i64 %call
}