; Function Attrs: mustprogress nofree norecurse nosync nounwind willreturn memory(argmem: read) uwtable
define internal noundef i64 @_ZNK3ue212_GLOBAL__N_120raw_report_info_impl4sizeEv(ptr nocapture noundef nonnull readonly align 8 dereferenceable(32) %this) unnamed_addr #15 align 2 {
entry:
  %rl = getelementptr inbounds i8, ptr %this, i64 8
  %rl.val = load ptr, ptr %rl, align 8
  %0 = getelementptr inbounds i8, ptr %this, i64 16
  %rl.val1 = load ptr, ptr %0, align 8
  %sub.ptr.lhs.cast.i = ptrtoint ptr %rl.val1 to i64
  %sub.ptr.rhs.cast.i = ptrtoint ptr %rl.val to i64
  %sub.ptr.sub.i = sub i64 %sub.ptr.lhs.cast.i, %sub.ptr.rhs.cast.i
  %sub.ptr.div.i = ashr exact i64 %sub.ptr.sub.i, 5
  ret i64 %sub.ptr.div.i
}